; Function Attrs: mustprogress nofree norecurse nosync nounwind willreturn memory(none) uwtable
define noundef zeroext range(i8 0, 6) i8 @l_Lean_Widget_ExprDiffTag_toDiffTag(i8 noundef zeroext %0, i8 noundef zeroext %1) local_unnamed_addr #2 {
  %3 = icmp eq i8 %0, 0
  %switch.selectcmp = icmp eq i8 %1, 1
  %switch.selectcmp10 = icmp eq i8 %1, 0
  %switch.select = select i1 %switch.selectcmp, i8 3, i8 5
  %switch.select11 = select i1 %switch.selectcmp10, i8 1, i8 %switch.select
  %switch.select13 = select i1 %switch.selectcmp, i8 2, i8 4
  %switch.select15 = select i1 %switch.selectcmp10, i8 0, i8 %switch.select13
  %.0 = select i1 %3, i8 %switch.select11, i8 %switch.select15
  ret i8 %.0
}